target datalayout = "e-m:e-p270:32:32-p271:32:32-p272:64:64-i64:64-i128:128-f80:128-n8:16:32:64-S128"
target triple = "x86_64-pc-linux-gnu"

%union.Value = type { ptr }
%struct.lua_State = type { ptr, i8, i8, i8, ptr, ptr, ptr, ptr, ptr, ptr, ptr, ptr, ptr, i32, i32, i16, i16, i8, i8, i32, i32, ptr, %struct.lua_TValue, %struct.lua_TValue, ptr, ptr, ptr, i64 }
%struct.lua_TValue = type { %union.Value, i32 }
%struct.global_State = type { %struct.stringtable, ptr, ptr, i8, i8, i32, ptr, ptr, ptr, ptr, ptr, ptr, %struct.Mbuffer, i64, i64, i64, i64, i32, i32, ptr, %struct.lua_TValue, ptr, %struct.UpVal, [9 x ptr], [17 x ptr] }
%struct.stringtable = type { ptr, i32, i32 }
%struct.Mbuffer = type { ptr, i64, i64 }
%struct.UpVal = type { ptr, i8, i8, ptr, %union.anon }
%union.anon = type { %struct.lua_TValue }
%struct.CallInfo = type { ptr, ptr, ptr, ptr, i32, i32 }
%struct.Table = type { ptr, i8, i8, i8, i8, ptr, ptr, ptr, ptr, ptr, i32 }
%struct.anon.1 = type { ptr, i8, i8, ptr, ptr, i64 }
%struct.CClosure = type { ptr, i8, i8, i8, i8, ptr, ptr, ptr, [1 x %struct.lua_TValue] }
%struct.Node = type { %struct.lua_TValue, %union.TKey }
%union.TKey = type { %struct.anon.2 }
%struct.anon.2 = type { %union.Value, i32, ptr }
%union.Udata = type { %struct.anon.1 }

@luaO_nilobject_ = internal constant { %union.Value, i32, [4 x i8] } zeroinitializer, align 8
@.str.219 = private unnamed_addr constant [27 x i8] c"standard %s file is closed\00", align 1
@fnames = internal constant [2 x ptr] [ptr @.str.216, ptr @.str.218], align 16

; Function Attrs: nounwind uwtable
define internal ptr @hashnum(ptr noundef %0, double noundef %1) #0 {
  %3 = alloca ptr, align 8
  %4 = alloca ptr, align 8
  %5 = alloca double, align 8
  %6 = alloca [2 x i32], align 4
  %7 = alloca i32, align 4
  %8 = alloca i32, align 4
  store ptr %0, ptr %4, align 8, !tbaa !97
  store double %1, ptr %5, align 8, !tbaa !154
  call void @llvm.lifetime.start.p0(i64 8, ptr %6) #14
  call void @llvm.lifetime.start.p0(i64 4, ptr %7) #14
  %9 = load double, ptr %5, align 8, !tbaa !154
  %10 = fcmp oeq double %9, 0.000000e+00
  br i1 %10, label %11, label %16

11:                                               ; preds = %2
  %12 = load ptr, ptr %4, align 8, !tbaa !97
  %13 = getelementptr inbounds nuw %struct.Table, ptr %12, i32 0, i32 7
  %14 = load ptr, ptr %13, align 8, !tbaa !125
  %15 = getelementptr inbounds %struct.Node, ptr %14, i64 0
  store ptr %15, ptr %3, align 8
  store i32 1, ptr %8, align 4
  br label %49

16:                                               ; preds = %2
  %17 = getelementptr inbounds [2 x i32], ptr %6, i64 0, i64 0
  call void @llvm.memcpy.p0.p0.i64(ptr align 4 %17, ptr align 8 %5, i64 8, i1 false)
  store i32 1, ptr %7, align 4, !tbaa !4
  br label %18

18:                                               ; preds = %29, %16
  %19 = load i32, ptr %7, align 4, !tbaa !4
  %20 = icmp slt i32 %19, 2
  br i1 %20, label %21, label %32

21:                                               ; preds = %18
  %22 = load i32, ptr %7, align 4, !tbaa !4
  %23 = sext i32 %22 to i64
  %24 = getelementptr inbounds [2 x i32], ptr %6, i64 0, i64 %23
  %25 = load i32, ptr %24, align 4, !tbaa !4
  %26 = getelementptr inbounds [2 x i32], ptr %6, i64 0, i64 0
  %27 = load i32, ptr %26, align 4, !tbaa !4
  %28 = add i32 %27, %25
  store i32 %28, ptr %26, align 4, !tbaa !4
  br label %29

29:                                               ; preds = %21
  %30 = load i32, ptr %7, align 4, !tbaa !4
  %31 = add nsw i32 %30, 1
  store i32 %31, ptr %7, align 4, !tbaa !4
  br label %18, !llvm.loop !213

32:                                               ; preds = %18
  %33 = load ptr, ptr %4, align 8, !tbaa !97
  %34 = getelementptr inbounds nuw %struct.Table, ptr %33, i32 0, i32 7
  %35 = load ptr, ptr %34, align 8, !tbaa !125
  %36 = getelementptr inbounds [2 x i32], ptr %6, i64 0, i64 0
  %37 = load i32, ptr %36, align 4, !tbaa !4
  %38 = zext i32 %37 to i64
  %39 = load ptr, ptr %4, align 8, !tbaa !97
  %40 = getelementptr inbounds nuw %struct.Table, ptr %39, i32 0, i32 4
  %41 = load i8, ptr %40, align 1, !tbaa !124
  %42 = zext i8 %41 to i32
  %43 = zext i32 %42 to i64
  %44 = shl i64 1, %43
  %45 = sub i64 %44, 1
  %46 = or i64 %45, 1
  %47 = urem i64 %38, %46
  %48 = getelementptr inbounds nuw %struct.Node, ptr %35, i64 %47
  store ptr %48, ptr %3, align 8
  store i32 1, ptr %8, align 4
  br label %49

49:                                               ; preds = %32, %11
  call void @llvm.lifetime.end.p0(i64 4, ptr %7) #14
  call void @llvm.lifetime.end.p0(i64 8, ptr %6) #14
  %50 = load ptr, ptr %3, align 8
  ret ptr %50
}

; Function Attrs: nounwind uwtable
define internal ptr @luaH_getnum(ptr noundef %0, i32 noundef %1) #0 {
  %3 = alloca ptr, align 8
  %4 = alloca ptr, align 8
  %5 = alloca i32, align 4
  %6 = alloca double, align 8
  %7 = alloca ptr, align 8
  %8 = alloca i32, align 4
  store ptr %0, ptr %4, align 8, !tbaa !97
  store i32 %1, ptr %5, align 4, !tbaa !4
  %9 = load i32, ptr %5, align 4, !tbaa !4
  %10 = sub i32 %9, 1
  %11 = load ptr, ptr %4, align 8, !tbaa !97
  %12 = getelementptr inbounds nuw %struct.Table, ptr %11, i32 0, i32 10
  %13 = load i32, ptr %12, align 8, !tbaa !123
  %14 = icmp ult i32 %10, %13
  br i1 %14, label %15, label %23

15:                                               ; preds = %2
  %16 = load ptr, ptr %4, align 8, !tbaa !97
  %17 = getelementptr inbounds nuw %struct.Table, ptr %16, i32 0, i32 6
  %18 = load ptr, ptr %17, align 8, !tbaa !122
  %19 = load i32, ptr %5, align 4, !tbaa !4
  %20 = sub nsw i32 %19, 1
  %21 = sext i32 %20 to i64
  %22 = getelementptr inbounds %struct.lua_TValue, ptr %18, i64 %21
  store ptr %22, ptr %3, align 8
  br label %56

23:                                               ; preds = %2
  call void @llvm.lifetime.start.p0(i64 8, ptr %6) #14
  %24 = load i32, ptr %5, align 4, !tbaa !4
  %25 = sitofp i32 %24 to double
  store double %25, ptr %6, align 8, !tbaa !154
  call void @llvm.lifetime.start.p0(i64 8, ptr %7) #14
  %26 = load ptr, ptr %4, align 8, !tbaa !97
  %27 = load double, ptr %6, align 8, !tbaa !154
  %28 = call ptr @hashnum(ptr noundef %26, double noundef %27)
  store ptr %28, ptr %7, align 8, !tbaa !168
  br label %29

29:                                               ; preds = %51, %23
  %30 = load ptr, ptr %7, align 8, !tbaa !168
  %31 = getelementptr inbounds nuw %struct.Node, ptr %30, i32 0, i32 1
  %32 = getelementptr inbounds nuw %struct.anon.2, ptr %31, i32 0, i32 1
  %33 = load i32, ptr %32, align 8, !tbaa !45
  %34 = icmp eq i32 %33, 3
  br i1 %34, label %35, label %45

35:                                               ; preds = %29
  %36 = load ptr, ptr %7, align 8, !tbaa !168
  %37 = getelementptr inbounds nuw %struct.Node, ptr %36, i32 0, i32 1
  %38 = getelementptr inbounds nuw %struct.anon.2, ptr %37, i32 0, i32 0
  %39 = load double, ptr %38, align 8, !tbaa !45
  %40 = load double, ptr %6, align 8, !tbaa !154
  %41 = fcmp oeq double %39, %40
  br i1 %41, label %42, label %45

42:                                               ; preds = %35
  %43 = load ptr, ptr %7, align 8, !tbaa !168
  %44 = getelementptr inbounds nuw %struct.Node, ptr %43, i32 0, i32 0
  store ptr %44, ptr %3, align 8
  store i32 1, ptr %8, align 4
  br label %55

45:                                               ; preds = %35, %29
  %46 = load ptr, ptr %7, align 8, !tbaa !168
  %47 = getelementptr inbounds nuw %struct.Node, ptr %46, i32 0, i32 1
  %48 = getelementptr inbounds nuw %struct.anon.2, ptr %47, i32 0, i32 2
  %49 = load ptr, ptr %48, align 8, !tbaa !45
  store ptr %49, ptr %7, align 8, !tbaa !168
  br label %50

50:                                               ; preds = %45
  br label %51

51:                                               ; preds = %50
  %52 = load ptr, ptr %7, align 8, !tbaa !168
  %53 = icmp ne ptr %52, null
  br i1 %53, label %29, label %54, !llvm.loop !212

54:                                               ; preds = %51
  store ptr @luaO_nilobject_, ptr %3, align 8
  store i32 1, ptr %8, align 4
  br label %55

55:                                               ; preds = %54, %42
  call void @llvm.lifetime.end.p0(i64 8, ptr %7) #14
  call void @llvm.lifetime.end.p0(i64 8, ptr %6) #14
  br label %56

56:                                               ; preds = %55, %15
  %57 = load ptr, ptr %3, align 8
  ret ptr %57
}

; Function Attrs: nounwind uwtable
define internal ptr @index2adr(ptr noundef %0, i32 noundef %1) #0 {
  %3 = alloca ptr, align 8
  %4 = alloca ptr, align 8
  %5 = alloca i32, align 4
  %6 = alloca ptr, align 8
  %7 = alloca i32, align 4
  %8 = alloca ptr, align 8
  %9 = alloca ptr, align 8
  %10 = alloca ptr, align 8
  store ptr %0, ptr %4, align 8, !tbaa !11
  store i32 %1, ptr %5, align 4, !tbaa !4
  %11 = load i32, ptr %5, align 4, !tbaa !4
  %12 = icmp sgt i32 %11, 0
  br i1 %12, label %13, label %30

13:                                               ; preds = %2
  call void @llvm.lifetime.start.p0(i64 8, ptr %6) #14
  %14 = load ptr, ptr %4, align 8, !tbaa !11
  %15 = getelementptr inbounds nuw %struct.lua_State, ptr %14, i32 0, i32 5
  %16 = load ptr, ptr %15, align 8, !tbaa !67
  %17 = load i32, ptr %5, align 4, !tbaa !4
  %18 = sub nsw i32 %17, 1
  %19 = sext i32 %18 to i64
  %20 = getelementptr inbounds %struct.lua_TValue, ptr %16, i64 %19
  store ptr %20, ptr %6, align 8, !tbaa !44
  %21 = load ptr, ptr %6, align 8, !tbaa !44
  %22 = load ptr, ptr %4, align 8, !tbaa !11
  %23 = getelementptr inbounds nuw %struct.lua_State, ptr %22, i32 0, i32 4
  %24 = load ptr, ptr %23, align 8, !tbaa !43
  %25 = icmp uge ptr %21, %24
  br i1 %25, label %26, label %27

26:                                               ; preds = %13
  store ptr @luaO_nilobject_, ptr %3, align 8
  store i32 1, ptr %7, align 4
  br label %29

27:                                               ; preds = %13
  %28 = load ptr, ptr %6, align 8, !tbaa !44
  store ptr %28, ptr %3, align 8
  store i32 1, ptr %7, align 4
  br label %29

29:                                               ; preds = %27, %26
  call void @llvm.lifetime.end.p0(i64 8, ptr %6) #14
  br label %95

30:                                               ; preds = %2
  %31 = load i32, ptr %5, align 4, !tbaa !4
  %32 = icmp sgt i32 %31, -10000
  br i1 %32, label %33, label %40

33:                                               ; preds = %30
  %34 = load ptr, ptr %4, align 8, !tbaa !11
  %35 = getelementptr inbounds nuw %struct.lua_State, ptr %34, i32 0, i32 4
  %36 = load ptr, ptr %35, align 8, !tbaa !43
  %37 = load i32, ptr %5, align 4, !tbaa !4
  %38 = sext i32 %37 to i64
  %39 = getelementptr inbounds %struct.lua_TValue, ptr %36, i64 %38
  store ptr %39, ptr %3, align 8
  br label %95

40:                                               ; preds = %30
  %41 = load i32, ptr %5, align 4, !tbaa !4
  switch i32 %41, label %69 [
    i32 -10000, label %42
    i32 -10001, label %47
    i32 -10002, label %66
  ]

42:                                               ; preds = %40
  %43 = load ptr, ptr %4, align 8, !tbaa !11
  %44 = getelementptr inbounds nuw %struct.lua_State, ptr %43, i32 0, i32 6
  %45 = load ptr, ptr %44, align 8, !tbaa !25
  %46 = getelementptr inbounds nuw %struct.global_State, ptr %45, i32 0, i32 20
  store ptr %46, ptr %3, align 8
  br label %95

47:                                               ; preds = %40
  call void @llvm.lifetime.start.p0(i64 8, ptr %8) #14
  %48 = load ptr, ptr %4, align 8, !tbaa !11
  %49 = getelementptr inbounds nuw %struct.lua_State, ptr %48, i32 0, i32 7
  %50 = load ptr, ptr %49, align 8, !tbaa !58
  %51 = getelementptr inbounds nuw %struct.CallInfo, ptr %50, i32 0, i32 1
  %52 = load ptr, ptr %51, align 8, !tbaa !117
  %53 = getelementptr inbounds nuw %struct.lua_TValue, ptr %52, i32 0, i32 0
  %54 = load ptr, ptr %53, align 8, !tbaa !45
  store ptr %54, ptr %8, align 8, !tbaa !191
  call void @llvm.lifetime.start.p0(i64 8, ptr %9) #14
  %55 = load ptr, ptr %4, align 8, !tbaa !11
  %56 = getelementptr inbounds nuw %struct.lua_State, ptr %55, i32 0, i32 23
  store ptr %56, ptr %9, align 8, !tbaa !44
  %57 = load ptr, ptr %8, align 8, !tbaa !191
  %58 = getelementptr inbounds nuw %struct.CClosure, ptr %57, i32 0, i32 6
  %59 = load ptr, ptr %58, align 8, !tbaa !45
  %60 = load ptr, ptr %9, align 8, !tbaa !44
  %61 = getelementptr inbounds nuw %struct.lua_TValue, ptr %60, i32 0, i32 0
  store ptr %59, ptr %61, align 8, !tbaa !45
  %62 = load ptr, ptr %9, align 8, !tbaa !44
  %63 = getelementptr inbounds nuw %struct.lua_TValue, ptr %62, i32 0, i32 1
  store i32 5, ptr %63, align 8, !tbaa !46
  call void @llvm.lifetime.end.p0(i64 8, ptr %9) #14
  %64 = load ptr, ptr %4, align 8, !tbaa !11
  %65 = getelementptr inbounds nuw %struct.lua_State, ptr %64, i32 0, i32 23
  store ptr %65, ptr %3, align 8
  store i32 1, ptr %7, align 4
  call void @llvm.lifetime.end.p0(i64 8, ptr %8) #14
  br label %95

66:                                               ; preds = %40
  %67 = load ptr, ptr %4, align 8, !tbaa !11
  %68 = getelementptr inbounds nuw %struct.lua_State, ptr %67, i32 0, i32 22
  store ptr %68, ptr %3, align 8
  br label %95

69:                                               ; preds = %40
  call void @llvm.lifetime.start.p0(i64 8, ptr %10) #14
  %70 = load ptr, ptr %4, align 8, !tbaa !11
  %71 = getelementptr inbounds nuw %struct.lua_State, ptr %70, i32 0, i32 7
  %72 = load ptr, ptr %71, align 8, !tbaa !58
  %73 = getelementptr inbounds nuw %struct.CallInfo, ptr %72, i32 0, i32 1
  %74 = load ptr, ptr %73, align 8, !tbaa !117
  %75 = getelementptr inbounds nuw %struct.lua_TValue, ptr %74, i32 0, i32 0
  %76 = load ptr, ptr %75, align 8, !tbaa !45
  store ptr %76, ptr %10, align 8, !tbaa !191
  %77 = load i32, ptr %5, align 4, !tbaa !4
  %78 = sub nsw i32 -10002, %77
  store i32 %78, ptr %5, align 4, !tbaa !4
  %79 = load i32, ptr %5, align 4, !tbaa !4
  %80 = load ptr, ptr %10, align 8, !tbaa !191
  %81 = getelementptr inbounds nuw %struct.CClosure, ptr %80, i32 0, i32 4
  %82 = load i8, ptr %81, align 1, !tbaa !45
  %83 = zext i8 %82 to i32
  %84 = icmp sle i32 %79, %83
  br i1 %84, label %85, label %92

85:                                               ; preds = %69
  %86 = load ptr, ptr %10, align 8, !tbaa !191
  %87 = getelementptr inbounds nuw %struct.CClosure, ptr %86, i32 0, i32 8
  %88 = load i32, ptr %5, align 4, !tbaa !4
  %89 = sub nsw i32 %88, 1
  %90 = sext i32 %89 to i64
  %91 = getelementptr inbounds [1 x %struct.lua_TValue], ptr %87, i64 0, i64 %90
  br label %93

92:                                               ; preds = %69
  br label %93

93:                                               ; preds = %92, %85
  %94 = phi ptr [ %91, %85 ], [ @luaO_nilobject_, %92 ]
  store ptr %94, ptr %3, align 8
  store i32 1, ptr %7, align 4
  call void @llvm.lifetime.end.p0(i64 8, ptr %10) #14
  br label %95

95:                                               ; preds = %93, %66, %47, %42, %33, %29
  %96 = load ptr, ptr %3, align 8
  ret ptr %96
}

; Function Attrs: nounwind uwtable
define internal ptr @lua_touserdata(ptr noundef %0, i32 noundef %1) #0 {
  %3 = alloca ptr, align 8
  %4 = alloca ptr, align 8
  %5 = alloca i32, align 4
  %6 = alloca ptr, align 8
  %7 = alloca i32, align 4
  store ptr %0, ptr %4, align 8, !tbaa !11
  store i32 %1, ptr %5, align 4, !tbaa !4
  call void @llvm.lifetime.start.p0(i64 8, ptr %6) #14
  %8 = load ptr, ptr %4, align 8, !tbaa !11
  %9 = load i32, ptr %5, align 4, !tbaa !4
  %10 = call ptr @index2adr(ptr noundef %8, i32 noundef %9)
  store ptr %10, ptr %6, align 8, !tbaa !44
  %11 = load ptr, ptr %6, align 8, !tbaa !44
  %12 = getelementptr inbounds nuw %struct.lua_TValue, ptr %11, i32 0, i32 1
  %13 = load i32, ptr %12, align 8, !tbaa !46
  switch i32 %13, label %23 [
    i32 7, label %14
    i32 2, label %19
  ]

14:                                               ; preds = %2
  %15 = load ptr, ptr %6, align 8, !tbaa !44
  %16 = getelementptr inbounds nuw %struct.lua_TValue, ptr %15, i32 0, i32 0
  %17 = load ptr, ptr %16, align 8, !tbaa !45
  %18 = getelementptr inbounds %union.Udata, ptr %17, i64 1
  store ptr %18, ptr %3, align 8
  store i32 1, ptr %7, align 4
  br label %24

19:                                               ; preds = %2
  %20 = load ptr, ptr %6, align 8, !tbaa !44
  %21 = getelementptr inbounds nuw %struct.lua_TValue, ptr %20, i32 0, i32 0
  %22 = load ptr, ptr %21, align 8, !tbaa !45
  store ptr %22, ptr %3, align 8
  store i32 1, ptr %7, align 4
  br label %24

23:                                               ; preds = %2
  store ptr null, ptr %3, align 8
  store i32 1, ptr %7, align 4
  br label %24

24:                                               ; preds = %23, %19, %14
  call void @llvm.lifetime.end.p0(i64 8, ptr %6) #14
  %25 = load ptr, ptr %3, align 8
  ret ptr %25
}

; Function Attrs: nounwind uwtable
define internal void @lua_rawgeti(ptr noundef %0, i32 noundef %1, i32 noundef %2) #0 {
  %4 = alloca ptr, align 8
  %5 = alloca i32, align 4
  %6 = alloca i32, align 4
  %7 = alloca ptr, align 8
  %8 = alloca ptr, align 8
  %9 = alloca ptr, align 8
  store ptr %0, ptr %4, align 8, !tbaa !11
  store i32 %1, ptr %5, align 4, !tbaa !4
  store i32 %2, ptr %6, align 4, !tbaa !4
  call void @llvm.lifetime.start.p0(i64 8, ptr %7) #14
  %10 = load ptr, ptr %4, align 8, !tbaa !11
  %11 = load i32, ptr %5, align 4, !tbaa !4
  %12 = call ptr @index2adr(ptr noundef %10, i32 noundef %11)
  store ptr %12, ptr %7, align 8, !tbaa !44
  call void @llvm.lifetime.start.p0(i64 8, ptr %8) #14
  %13 = load ptr, ptr %7, align 8, !tbaa !44
  %14 = getelementptr inbounds nuw %struct.lua_TValue, ptr %13, i32 0, i32 0
  %15 = load ptr, ptr %14, align 8, !tbaa !45
  %16 = load i32, ptr %6, align 4, !tbaa !4
  %17 = call ptr @luaH_getnum(ptr noundef %15, i32 noundef %16)
  store ptr %17, ptr %8, align 8, !tbaa !44
  call void @llvm.lifetime.start.p0(i64 8, ptr %9) #14
  %18 = load ptr, ptr %4, align 8, !tbaa !11
  %19 = getelementptr inbounds nuw %struct.lua_State, ptr %18, i32 0, i32 4
  %20 = load ptr, ptr %19, align 8, !tbaa !43
  store ptr %20, ptr %9, align 8, !tbaa !44
  %21 = load ptr, ptr %9, align 8, !tbaa !44
  %22 = getelementptr inbounds nuw %struct.lua_TValue, ptr %21, i32 0, i32 0
  %23 = load ptr, ptr %8, align 8, !tbaa !44
  %24 = getelementptr inbounds nuw %struct.lua_TValue, ptr %23, i32 0, i32 0
  call void @llvm.memcpy.p0.p0.i64(ptr align 8 %22, ptr align 8 %24, i64 8, i1 false), !tbaa.struct !47
  %25 = load ptr, ptr %8, align 8, !tbaa !44
  %26 = getelementptr inbounds nuw %struct.lua_TValue, ptr %25, i32 0, i32 1
  %27 = load i32, ptr %26, align 8, !tbaa !46
  %28 = load ptr, ptr %9, align 8, !tbaa !44
  %29 = getelementptr inbounds nuw %struct.lua_TValue, ptr %28, i32 0, i32 1
  store i32 %27, ptr %29, align 8, !tbaa !46
  call void @llvm.lifetime.end.p0(i64 8, ptr %9) #14
  call void @llvm.lifetime.end.p0(i64 8, ptr %8) #14
  %30 = load ptr, ptr %4, align 8, !tbaa !11
  %31 = getelementptr inbounds nuw %struct.lua_State, ptr %30, i32 0, i32 4
  %32 = load ptr, ptr %31, align 8, !tbaa !43
  %33 = getelementptr inbounds nuw %struct.lua_TValue, ptr %32, i32 1
  store ptr %33, ptr %31, align 8, !tbaa !43
  call void @llvm.lifetime.end.p0(i64 8, ptr %7) #14
  ret void
}

; Function Attrs: nounwind uwtable
define internal ptr @getiofile(ptr noundef %0, i32 noundef %1) #0 {
  %3 = alloca ptr, align 8
  %4 = alloca i32, align 4
  %5 = alloca ptr, align 8
  store ptr %0, ptr %3, align 8, !tbaa !11
  store i32 %1, ptr %4, align 4, !tbaa !4
  call void @llvm.lifetime.start.p0(i64 8, ptr %5) #14
  %6 = load ptr, ptr %3, align 8, !tbaa !11
  %7 = load i32, ptr %4, align 4, !tbaa !4
  call void @lua_rawgeti(ptr noundef %6, i32 noundef -10001, i32 noundef %7)
  %8 = load ptr, ptr %3, align 8, !tbaa !11
  %9 = call ptr @lua_touserdata(ptr noundef %8, i32 noundef -1)
  %10 = load ptr, ptr %9, align 8, !tbaa !17
  store ptr %10, ptr %5, align 8, !tbaa !17
  %11 = load ptr, ptr %5, align 8, !tbaa !17
  %12 = icmp eq ptr %11, null
  br i1 %12, label %13, label %21

13:                                               ; preds = %2
  %14 = load ptr, ptr %3, align 8, !tbaa !11
  %15 = load i32, ptr %4, align 4, !tbaa !4
  %16 = sub nsw i32 %15, 1
  %17 = sext i32 %16 to i64
  %18 = getelementptr inbounds [2 x ptr], ptr @fnames, i64 0, i64 %17
  %19 = load ptr, ptr %18, align 8, !tbaa !13
  %20 = call i32 (ptr, ptr, ...) @luaL_error(ptr noundef %14, ptr noundef @.str.219, ptr noundef %19)
  br label %21

21:                                               ; preds = %13, %2
  %22 = load ptr, ptr %5, align 8, !tbaa !17
  call void @llvm.lifetime.end.p0(i64 8, ptr %5) #14
  ret ptr %22
}

; Function Attrs: nounwind uwtable
define internal i32 @io_write(ptr noundef %0) #0 {
  %2 = alloca ptr, align 8
  store ptr %0, ptr %2, align 8, !tbaa !11
  %3 = load ptr, ptr %2, align 8, !tbaa !11
  %4 = load ptr, ptr %2, align 8, !tbaa !11
  %5 = call ptr @getiofile(ptr noundef %4, i32 noundef 2)
  %6 = call i32 @g_write(ptr noundef %3, ptr noundef %5, i32 noundef 1)
  ret i32 %6
}