; Function Attrs: nounwind uwtable
define internal range(i32 1, 4) i32 @io_write(ptr noundef initializes((136, 148)) %0) #0 {
  %2 = getelementptr inbounds nuw i8, ptr %0, i64 40
  %3 = load ptr, ptr %2, align 8, !tbaa !83
  %4 = getelementptr inbounds nuw i8, ptr %3, i64 8
  %5 = load ptr, ptr %4, align 8, !tbaa !93
  %6 = load ptr, ptr %5, align 8, !tbaa !46
  %7 = getelementptr inbounds nuw i8, ptr %0, i64 136
  %8 = getelementptr inbounds nuw i8, ptr %6, i64 24
  %9 = load ptr, ptr %8, align 8, !tbaa !46
  store ptr %9, ptr %7, align 8, !tbaa !46
  %10 = getelementptr inbounds nuw i8, ptr %0, i64 144
  store i32 5, ptr %10, align 8, !tbaa !69
  %11 = getelementptr inbounds nuw i8, ptr %9, i64 56
  %12 = load i32, ptr %11, align 8, !tbaa !94
  %13 = icmp ugt i32 %12, 1
  br i1 %13, label %14, label %18

14:                                               ; preds = %1
  %15 = getelementptr inbounds nuw i8, ptr %9, i64 24
  %16 = load ptr, ptr %15, align 8, !tbaa !95
  %17 = getelementptr inbounds nuw i8, ptr %16, i64 16
  br label %lua_rawgeti.exit.i

18:                                               ; preds = %1
  %19 = getelementptr inbounds nuw i8, ptr %9, i64 32
  %20 = load ptr, ptr %19, align 8, !tbaa !71
  %21 = getelementptr inbounds nuw i8, ptr %9, i64 11
  %22 = load i8, ptr %21, align 1, !tbaa !96
  %23 = zext nneg i8 %22 to i64
  %notmask.i.i.i.i = shl nsw i64 -1, %23
  %24 = xor i64 %notmask.i.i.i.i, -1
  %25 = or i64 %24, 1
  %26 = urem i64 1073741824, %25
  %27 = getelementptr inbounds nuw %struct.Node, ptr %20, i64 %26
  br label %28

28:                                               ; preds = %36, %18
  %.0.i.i.i = phi ptr [ %27, %18 ], [ %38, %36 ]
  %29 = getelementptr inbounds nuw i8, ptr %.0.i.i.i, i64 24
  %30 = load i32, ptr %29, align 8, !tbaa !46
  %31 = icmp eq i32 %30, 3
  br i1 %31, label %32, label %36

32:                                               ; preds = %28
  %33 = getelementptr inbounds nuw i8, ptr %.0.i.i.i, i64 16
  %34 = load double, ptr %33, align 8, !tbaa !46
  %35 = fcmp oeq double %34, 2.000000e+00
  br i1 %35, label %lua_rawgeti.exit.i, label %36

36:                                               ; preds = %32, %28
  %37 = getelementptr inbounds nuw i8, ptr %.0.i.i.i, i64 32
  %38 = load ptr, ptr %37, align 8, !tbaa !46
  %.not.i9.i.i = icmp eq ptr %38, null
  br i1 %.not.i9.i.i, label %lua_rawgeti.exit.i, label %28, !llvm.loop !74

lua_rawgeti.exit.i:                               ; preds = %36, %32, %14
  %.013.i.i.i = phi ptr [ %17, %14 ], [ %.0.i.i.i, %32 ], [ @luaO_nilobject_, %36 ]
  %39 = getelementptr inbounds nuw i8, ptr %0, i64 16
  %40 = load ptr, ptr %39, align 8, !tbaa !62
  %41 = load i64, ptr %.013.i.i.i, align 8, !tbaa !46
  store i64 %41, ptr %40, align 8, !tbaa !46
  %42 = getelementptr inbounds nuw i8, ptr %.013.i.i.i, i64 8
  %43 = load i32, ptr %42, align 8, !tbaa !69
  %44 = getelementptr inbounds nuw i8, ptr %40, i64 8
  store i32 %43, ptr %44, align 8, !tbaa !69
  %45 = load ptr, ptr %39, align 8, !tbaa !62
  %46 = getelementptr inbounds nuw i8, ptr %45, i64 16
  store ptr %46, ptr %39, align 8, !tbaa !62
  %47 = getelementptr inbounds nuw i8, ptr %45, i64 8
  %48 = load i32, ptr %47, align 8, !tbaa !69
  %switch.i = icmp eq i32 %48, 7
  %49 = load ptr, ptr %45, align 8, !tbaa !46
  %.0.i.idx.i = select i1 %switch.i, i64 40, i64 0
  %.0.i.i = getelementptr inbounds nuw i8, ptr %49, i64 %.0.i.idx.i
  %50 = load ptr, ptr %.0.i.i, align 8, !tbaa !81
  %51 = icmp eq ptr %50, null
  br i1 %51, label %52, label %getiofile.exit

52:                                               ; preds = %lua_rawgeti.exit.i
  tail call void (ptr, ptr, ...) @luaL_error(ptr noundef nonnull %0, ptr noundef nonnull @.str.219, ptr noundef nonnull @.str.218)
  unreachable

getiofile.exit:                                   ; preds = %lua_rawgeti.exit.i
  %53 = tail call fastcc i32 @g_write(ptr noundef nonnull %0, ptr noundef nonnull %50, i32 noundef 1)
  ret i32 %53
}